; Function Attrs: mustprogress nofree nounwind willreturn memory(write, argmem: none, inaccessiblemem: readwrite) uwtable
define noalias noundef ptr @Abc_CexAllocFull(i32 noundef %0, i32 noundef %1, i32 noundef %2) local_unnamed_addr #0 {
  %4 = mul nsw i32 %2, %1
  %5 = add nsw i32 %4, %0
  %6 = ashr i32 %5, 5
  %7 = and i32 %5, 31
  %8 = icmp ne i32 %7, 0
  %9 = zext i1 %8 to i32
  %10 = add nsw i32 %6, %9
  %11 = sext i32 %10 to i64
  %12 = shl nsw i64 %11, 2
  %13 = add nsw i64 %12, 20
  %14 = tail call noalias ptr @malloc(i64 noundef %13) #15
  tail call void @llvm.memset.p0.i64(ptr align 4 %14, i8 -1, i64 %13, i1 false)
  %15 = getelementptr inbounds nuw i8, ptr %14, i64 8
  store i32 %0, ptr %15, align 4, !tbaa !3
  %16 = getelementptr inbounds nuw i8, ptr %14, i64 12
  store i32 %1, ptr %16, align 4, !tbaa !8
  %17 = getelementptr inbounds nuw i8, ptr %14, i64 16
  store i32 %5, ptr %17, align 4, !tbaa !9
  ret ptr %14
}